target datalayout = "e-m:e-p270:32:32-p271:32:32-p272:64:64-i64:64-i128:128-f80:128-n8:16:32:64-S128"
target triple = "x86_64-pc-linux-gnu"

%struct.mbedtls_mpi = type { i32, i64, ptr }

; Function Attrs: mustprogress uwtable
define internal void @_ZL19mbedtls_mpi_zeroizePmm(ptr noundef %0, i64 noundef %1) #1 {
  %3 = alloca ptr, align 8
  %4 = alloca i64, align 8
  store ptr %0, ptr %3, align 8, !tbaa !15
  store i64 %1, ptr %4, align 8, !tbaa !16
  %5 = load ptr, ptr %3, align 8, !tbaa !15
  %6 = load i64, ptr %4, align 8, !tbaa !16
  %7 = mul i64 8, %6
  call void @mbedtls_platform_zeroize(ptr noundef %5, i64 noundef %7)
  ret void
}

; Function Attrs: mustprogress uwtable
define hidden i32 @mbedtls_mpi_grow(ptr noundef %0, i64 noundef %1) #1 {
  %3 = alloca i32, align 4
  %4 = alloca ptr, align 8
  %5 = alloca i64, align 8
  %6 = alloca ptr, align 8
  %7 = alloca i32, align 4
  store ptr %0, ptr %4, align 8, !tbaa !3
  store i64 %1, ptr %5, align 8, !tbaa !16
  call void @llvm.lifetime.start.p0(i64 8, ptr %6) #10
  br label %8

8:                                                ; preds = %2
  br label %9

9:                                                ; preds = %8
  br label %10

10:                                               ; preds = %9
  %11 = load i64, ptr %5, align 8, !tbaa !16
  %12 = icmp ugt i64 %11, 10000
  br i1 %12, label %13, label %14

13:                                               ; preds = %10
  store i32 -16, ptr %3, align 4
  store i32 1, ptr %7, align 4
  br label %56

14:                                               ; preds = %10
  %15 = load ptr, ptr %4, align 8, !tbaa !3
  %16 = getelementptr inbounds nuw %struct.mbedtls_mpi, ptr %15, i32 0, i32 1
  %17 = load i64, ptr %16, align 8, !tbaa !13
  %18 = load i64, ptr %5, align 8, !tbaa !16
  %19 = icmp ult i64 %17, %18
  br i1 %19, label %20, label %55

20:                                               ; preds = %14
  %21 = load i64, ptr %5, align 8, !tbaa !16
  %22 = call noalias ptr @calloc(i64 noundef %21, i64 noundef 8) #11
  store ptr %22, ptr %6, align 8, !tbaa !15
  %23 = icmp eq ptr %22, null
  br i1 %23, label %24, label %25

24:                                               ; preds = %20
  store i32 -16, ptr %3, align 4
  store i32 1, ptr %7, align 4
  br label %56

25:                                               ; preds = %20
  %26 = load ptr, ptr %4, align 8, !tbaa !3
  %27 = getelementptr inbounds nuw %struct.mbedtls_mpi, ptr %26, i32 0, i32 2
  %28 = load ptr, ptr %27, align 8, !tbaa !14
  %29 = icmp ne ptr %28, null
  br i1 %29, label %30, label %48

30:                                               ; preds = %25
  %31 = load ptr, ptr %6, align 8, !tbaa !15
  %32 = load ptr, ptr %4, align 8, !tbaa !3
  %33 = getelementptr inbounds nuw %struct.mbedtls_mpi, ptr %32, i32 0, i32 2
  %34 = load ptr, ptr %33, align 8, !tbaa !14
  %35 = load ptr, ptr %4, align 8, !tbaa !3
  %36 = getelementptr inbounds nuw %struct.mbedtls_mpi, ptr %35, i32 0, i32 1
  %37 = load i64, ptr %36, align 8, !tbaa !13
  %38 = mul i64 %37, 8
  call void @llvm.memcpy.p0.p0.i64(ptr align 8 %31, ptr align 8 %34, i64 %38, i1 false)
  %39 = load ptr, ptr %4, align 8, !tbaa !3
  %40 = getelementptr inbounds nuw %struct.mbedtls_mpi, ptr %39, i32 0, i32 2
  %41 = load ptr, ptr %40, align 8, !tbaa !14
  %42 = load ptr, ptr %4, align 8, !tbaa !3
  %43 = getelementptr inbounds nuw %struct.mbedtls_mpi, ptr %42, i32 0, i32 1
  %44 = load i64, ptr %43, align 8, !tbaa !13
  call void @_ZL19mbedtls_mpi_zeroizePmm(ptr noundef %41, i64 noundef %44)
  %45 = load ptr, ptr %4, align 8, !tbaa !3
  %46 = getelementptr inbounds nuw %struct.mbedtls_mpi, ptr %45, i32 0, i32 2
  %47 = load ptr, ptr %46, align 8, !tbaa !14
  call void @free(ptr noundef %47) #10
  br label %48

48:                                               ; preds = %30, %25
  %49 = load i64, ptr %5, align 8, !tbaa !16
  %50 = load ptr, ptr %4, align 8, !tbaa !3
  %51 = getelementptr inbounds nuw %struct.mbedtls_mpi, ptr %50, i32 0, i32 1
  store i64 %49, ptr %51, align 8, !tbaa !13
  %52 = load ptr, ptr %6, align 8, !tbaa !15
  %53 = load ptr, ptr %4, align 8, !tbaa !3
  %54 = getelementptr inbounds nuw %struct.mbedtls_mpi, ptr %53, i32 0, i32 2
  store ptr %52, ptr %54, align 8, !tbaa !14
  br label %55

55:                                               ; preds = %48, %14
  store i32 0, ptr %3, align 4
  store i32 1, ptr %7, align 4
  br label %56

56:                                               ; preds = %55, %24, %13
  call void @llvm.lifetime.end.p0(i64 8, ptr %6) #10
  %57 = load i32, ptr %3, align 4
  ret i32 %57
}

; Function Attrs: mustprogress uwtable
define hidden i32 @mbedtls_mpi_set_bit(ptr noundef %0, i64 noundef %1, i8 noundef zeroext %2) #1 {
  %4 = alloca i32, align 4
  %5 = alloca ptr, align 8
  %6 = alloca i64, align 8
  %7 = alloca i8, align 1
  %8 = alloca i32, align 4
  %9 = alloca i64, align 8
  %10 = alloca i64, align 8
  %11 = alloca i32, align 4
  store ptr %0, ptr %5, align 8, !tbaa !3
  store i64 %1, ptr %6, align 8, !tbaa !16
  store i8 %2, ptr %7, align 1, !tbaa !21
  call void @llvm.lifetime.start.p0(i64 4, ptr %8) #10
  store i32 0, ptr %8, align 4, !tbaa !19
  call void @llvm.lifetime.start.p0(i64 8, ptr %9) #10
  %12 = load i64, ptr %6, align 8, !tbaa !16
  %13 = udiv i64 %12, 64
  store i64 %13, ptr %9, align 8, !tbaa !16
  call void @llvm.lifetime.start.p0(i64 8, ptr %10) #10
  %14 = load i64, ptr %6, align 8, !tbaa !16
  %15 = urem i64 %14, 64
  store i64 %15, ptr %10, align 8, !tbaa !16
  br label %16

16:                                               ; preds = %3
  br label %17

17:                                               ; preds = %16
  br label %18

18:                                               ; preds = %17
  %19 = load i8, ptr %7, align 1, !tbaa !21
  %20 = zext i8 %19 to i32
  %21 = icmp ne i32 %20, 0
  br i1 %21, label %22, label %27

22:                                               ; preds = %18
  %23 = load i8, ptr %7, align 1, !tbaa !21
  %24 = zext i8 %23 to i32
  %25 = icmp ne i32 %24, 1
  br i1 %25, label %26, label %27

26:                                               ; preds = %22
  store i32 -4, ptr %4, align 4
  store i32 1, ptr %11, align 4
  br label %74

27:                                               ; preds = %22, %18
  %28 = load ptr, ptr %5, align 8, !tbaa !3
  %29 = getelementptr inbounds nuw %struct.mbedtls_mpi, ptr %28, i32 0, i32 1
  %30 = load i64, ptr %29, align 8, !tbaa !13
  %31 = mul i64 %30, 64
  %32 = load i64, ptr %6, align 8, !tbaa !16
  %33 = icmp ule i64 %31, %32
  br i1 %33, label %34, label %50

34:                                               ; preds = %27
  %35 = load i8, ptr %7, align 1, !tbaa !21
  %36 = zext i8 %35 to i32
  %37 = icmp eq i32 %36, 0
  br i1 %37, label %38, label %39

38:                                               ; preds = %34
  store i32 0, ptr %4, align 4
  store i32 1, ptr %11, align 4
  br label %74

39:                                               ; preds = %34
  br label %40

40:                                               ; preds = %39
  %41 = load ptr, ptr %5, align 8, !tbaa !3
  %42 = load i64, ptr %9, align 8, !tbaa !16
  %43 = add i64 %42, 1
  %44 = call i32 @mbedtls_mpi_grow(ptr noundef %41, i64 noundef %43)
  store i32 %44, ptr %8, align 4, !tbaa !19
  %45 = icmp ne i32 %44, 0
  br i1 %45, label %46, label %47

46:                                               ; preds = %40
  br label %72

47:                                               ; preds = %40
  br label %48

48:                                               ; preds = %47
  br label %49

49:                                               ; preds = %48
  br label %50

50:                                               ; preds = %49, %27
  %51 = load i64, ptr %10, align 8, !tbaa !16
  %52 = shl i64 1, %51
  %53 = xor i64 %52, -1
  %54 = load ptr, ptr %5, align 8, !tbaa !3
  %55 = getelementptr inbounds nuw %struct.mbedtls_mpi, ptr %54, i32 0, i32 2
  %56 = load ptr, ptr %55, align 8, !tbaa !14
  %57 = load i64, ptr %9, align 8, !tbaa !16
  %58 = getelementptr inbounds nuw i64, ptr %56, i64 %57
  %59 = load i64, ptr %58, align 8, !tbaa !16
  %60 = and i64 %59, %53
  store i64 %60, ptr %58, align 8, !tbaa !16
  %61 = load i8, ptr %7, align 1, !tbaa !21
  %62 = zext i8 %61 to i64
  %63 = load i64, ptr %10, align 8, !tbaa !16
  %64 = shl i64 %62, %63
  %65 = load ptr, ptr %5, align 8, !tbaa !3
  %66 = getelementptr inbounds nuw %struct.mbedtls_mpi, ptr %65, i32 0, i32 2
  %67 = load ptr, ptr %66, align 8, !tbaa !14
  %68 = load i64, ptr %9, align 8, !tbaa !16
  %69 = getelementptr inbounds nuw i64, ptr %67, i64 %68
  %70 = load i64, ptr %69, align 8, !tbaa !16
  %71 = or i64 %70, %64
  store i64 %71, ptr %69, align 8, !tbaa !16
  br label %72

72:                                               ; preds = %50, %46
  %73 = load i32, ptr %8, align 4, !tbaa !19
  store i32 %73, ptr %4, align 4
  store i32 1, ptr %11, align 4
  br label %74

74:                                               ; preds = %72, %38, %26
  call void @llvm.lifetime.end.p0(i64 8, ptr %10) #10
  call void @llvm.lifetime.end.p0(i64 8, ptr %9) #10
  call void @llvm.lifetime.end.p0(i64 4, ptr %8) #10
  %75 = load i32, ptr %4, align 4
  ret i32 %75
}