; Function Attrs: mustprogress uwtable
define hidden range(i32 -16, 1) i32 @mbedtls_mpi_set_bit(ptr noundef captures(none) %0, i64 noundef %1, i8 noundef zeroext %2) local_unnamed_addr #1 {
  %4 = lshr i64 %1, 6
  %5 = and i64 %1, 63
  %or.cond = icmp ugt i8 %2, 1
  br i1 %or.cond, label %mbedtls_mpi_grow.exit, label %6

6:                                                ; preds = %3
  %7 = getelementptr inbounds nuw i8, ptr %0, i64 8
  %8 = load i64, ptr %7, align 8, !tbaa !12
  %9 = shl i64 %8, 6
  %.not = icmp ugt i64 %9, %1
  br i1 %.not, label %mbedtls_mpi_grow.exit.thread, label %10

10:                                               ; preds = %6
  %11 = icmp eq i8 %2, 0
  br i1 %11, label %mbedtls_mpi_grow.exit, label %12

12:                                               ; preds = %10
  %13 = add nuw nsw i64 %4, 1
  %14 = icmp ugt i64 %1, 639999
  br i1 %14, label %mbedtls_mpi_grow.exit, label %15

15:                                               ; preds = %12
  %.not25 = icmp ugt i64 %8, %4
  br i1 %.not25, label %mbedtls_mpi_grow.exit.thread, label %16

16:                                               ; preds = %15
  %17 = tail call noalias ptr @calloc(i64 noundef %13, i64 noundef 8) #16
  %18 = icmp eq ptr %17, null
  br i1 %18, label %mbedtls_mpi_grow.exit, label %19

19:                                               ; preds = %16
  %20 = getelementptr inbounds nuw i8, ptr %0, i64 16
  %21 = load ptr, ptr %20, align 8, !tbaa !11
  %.not.i = icmp eq ptr %21, null
  br i1 %.not.i, label %25, label %22

22:                                               ; preds = %19
  %23 = shl nuw nsw i64 %8, 3
  tail call void @llvm.memcpy.p0.p0.i64(ptr nonnull align 8 %17, ptr nonnull align 8 %21, i64 %23, i1 false)
  tail call void @mbedtls_platform_zeroize(ptr noundef nonnull %21, i64 noundef %23)
  %24 = load ptr, ptr %20, align 8, !tbaa !11
  tail call void @free(ptr noundef %24) #15
  br label %25

25:                                               ; preds = %22, %19
  store i64 %13, ptr %7, align 8, !tbaa !12
  store ptr %17, ptr %20, align 8, !tbaa !11
  br label %mbedtls_mpi_grow.exit.thread

mbedtls_mpi_grow.exit.thread:                     ; preds = %15, %25, %6
  %26 = shl nuw i64 1, %5
  %27 = xor i64 %26, -1
  %28 = getelementptr inbounds nuw i8, ptr %0, i64 16
  %29 = load ptr, ptr %28, align 8, !tbaa !11
  %30 = getelementptr inbounds nuw i64, ptr %29, i64 %4
  %31 = load i64, ptr %30, align 8, !tbaa !13
  %32 = and i64 %31, %27
  %33 = zext nneg i8 %2 to i64
  %34 = shl nuw i64 %33, %5
  %35 = or i64 %32, %34
  store i64 %35, ptr %30, align 8, !tbaa !13
  br label %mbedtls_mpi_grow.exit

mbedtls_mpi_grow.exit:                            ; preds = %16, %12, %mbedtls_mpi_grow.exit.thread, %10, %3
  %.0 = phi i32 [ -4, %3 ], [ 0, %10 ], [ 0, %mbedtls_mpi_grow.exit.thread ], [ -16, %12 ], [ -16, %16 ]
  ret i32 %.0
}